Certificate:
    Data:
        Version: 3 (0x2)
        Serial Number:
            a3:11:bf:34:c2:7a:a0:5a
    Signature Algorithm: sha256WithRSAEncryption
        Issuer: C=AT, ST=SALZBURG, L=SALZBURG, O=ACI Worldwide (Germany) GmbH, OU=Operations, CN=payon-root-ca
        Validity
            Not Before: Nov 13 07:50:34 2018 GMT
            Not After : Nov 11 07:50:34 2025 GMT
        Subject: CN=localhost, ST=Bavaria, C=DE, O=ACI Worldwide Germany
        Subject Public Key Info:
            Public Key Algorithm: rsaEncryption
                Public-Key: (4096 bit)
                Modulus:
                    00:9c:07:a5:2a:3a:a1:85:09:33:1c:39:3d:ff:d4:
                    cc:a5:74:7e:be:42:aa:24:1f:cc:47:96:c3:2d:59:
                    83:1e:75:f1:dc:20:09:9d:f3:9f:38:3d:cf:b3:85:
                    88:ec:36:cb:96:d8:a5:19:01:e7:1f:30:20:bc:85:
                    13:b1:1f:dc:8b:cf:b1:00:0b:2f:1e:fa:87:59:a2:
                    88:20:42:a6:2e:ba:bc:43:41:17:0d:54:22:da:53:
                    d6:51:99:01:ba:d7:ce:31:64:7f:6b:0b:3e:2a:da:
                    0e:15:0a:f5:8d:42:9e:56:af:ab:e7:82:39:cd:35:
                    0a:f5:03:dd:f8:9e:c1:c1:49:ef:21:09:ea:04:3d:
                    53:66:b5:65:cb:97:f2:d4:67:af:a5:a2:92:a3:ac:
                    40:78:83:6d:dc:9f:5c:12:d7:d8:ee:28:25:91:1d:
                    4f:4b:b5:4b:d3:60:5b:73:10:55:23:92:04:f3:98:
                    10:78:e5:f8:46:e0:53:ac:a5:db:c5:70:54:38:d9:
                    36:65:e7:25:be:fb:54:98:20:a6:07:f6:8c:ca:8c:
                    6b:c3:81:0a:43:c5:13:36:93:c3:e4:97:5a:75:8f:
                    98:c8:b1:92:f9:63:40:98:b5:c0:0d:54:19:95:3d:
                    b4:d8:b5:b6:67:e3:2c:5b:8d:94:db:52:46:a7:cf:
                    95:fd:43:1e:ed:7f:4b:9e:3f:01:38:8f:68:72:4e:
                    15:e9:5e:d7:b7:14:60:41:fb:0f:ed:cc:d6:8d:35:
                    32:d1:44:2a:b8:10:55:96:49:8d:aa:82:33:ee:97:
                    8a:50:1e:28:c2:a8:98:52:8e:52:39:e4:6d:97:d8:
                    b3:36:51:31:51:84:5e:ae:f5:a6:ec:17:59:69:c6:
                    79:4a:59:c3:3b:fd:6a:ad:a5:1a:24:38:23:88:89:
                    67:1d:c7:27:2b:22:d5:d9:c3:62:eb:d3:06:eb:ad:
                    a5:bc:96:86:dc:2a:73:59:08:b7:3e:a6:17:76:06:
                    0f:f8:0b:fc:f9:66:89:17:18:ec:0b:ff:88:6b:cd:
                    66:77:15:dd:a3:cf:d4:f2:9b:58:ce:a8:4a:44:57:
                    35:6b:f1:7c:52:73:f4:fc:7a:2e:35:59:0b:64:83:
                    3c:57:6e:e7:63:4f:87:b0:cd:79:b2:bc:59:67:05:
                    b0:d1:60:c6:c8:e7:70:a5:25:65:6e:0e:8e:83:fd:
                    2e:a6:4a:de:ab:71:d7:ba:a9:18:17:5d:f0:a9:58:
                    8b:90:03:41:86:78:a7:3e:f7:d8:13:18:a2:67:76:
                    1e:c3:c2:88:e0:0e:71:dc:39:f4:a7:e0:8e:fc:c7:
                    1d:70:cd:28:6d:1c:7a:17:9d:bc:dc:ab:33:5a:8a:
                    b6:40:1f
                Exponent: 65537 (0x10001)
        X509v3 extensions:
            X509v3 Basic Constraints: 
                CA:FALSE
            Netscape Cert Type: 
                SSL Server
            X509v3 Subject Key Identifier: 
                D3:61:A4:7E:58:30:AB:5A:98:3D:C6:2F:B7:87:11:8D:49:D0:FB:C9
            X509v3 Authority Key Identifier: 
                keyid:41:84:56:AA:03:E1:EB:12:DD:1D:D6:94:F1:BD:FC:59:5D:1D:08:5A
                DirName:/C=AT/ST=SALZBURG/L=SALZBURG/O=ACI Worldwide (Germany) GmbH/OU=Operations/CN=payon-root-ca
                serial:C4:D5:46:6B:8A:F5:65:07

            X509v3 Key Usage: 
                Digital Signature, Key Encipherment, Key Agreement
            X509v3 Extended Key Usage: 
                TLS Web Server Authentication
            X509v3 Subject Alternative Name: 
                IP Address:127.0.0.1, IP Address:0:0:0:0:0:0:0:1, DNS:localhost, DNS:db
    Signature Algorithm: sha256WithRSAEncryption
         55:46:1e:20:15:92:15:0a:bd:6a:3f:cf:5d:5b:96:d8:a3:ea:
         a2:a3:23:7a:87:d3:1b:41:f0:c8:30:1d:b3:6d:12:7d:cb:25:
         d8:9c:7f:ea:96:c4:d4:9d:25:5a:fb:f3:e9:e5:c5:48:6a:2e:
         15:82:1c:26:b6:d8:4c:ef:fb:65:5b:59:9b:47:6e:5e:85:ae:
         5d:98:ec:f7:82:b0:35:a7:4a:10:c0:de:c7:13:31:84:99:0c:
         ec:be:55:1a:3f:ba:b3:22:8f:86:67:86:55:77:f5:f2:58:82:
         c0:37:0e:4f:c5:a1:e4:b0:d4:5e:ea:bb:18:82:48:2a:e4:71:
         a5:86:40:7f:9b:13:bd:e9:d1:01:8a:72:ea:81:d4:5f:1d:5f:
         ed:7f:e1:7f:20:8e:fc:fe:d1:8f:1e:09:20:19:e8:23:ee:90:
         13:a8:55:2e:d8:e6:59:1f:0a:e0:34:be:5b:b9:8c:4d:cc:f7:
         68:6c:62:e1:3f:b5:6d:82:bd:7a:cc:3f:ea:0f:1f:a9:9b:c4:
         83:06:96:b4:a5:22:e3:93:44:88:f2:f8:92:75:25:e5:84:d3:
         32:f4:4e:87:ac:78:18:2f:29:df:9d:d6:56:02:08:c9:1c:1e:
         3e:15:8d:da:64:57:e7:5c:56:93:d7:ac:a7:ff:97:42:30:9e:
         d4:4d:4c:e9:b3:4b:05:48:56:c5:f0:55:47:5a:19:25:3d:fd:
         86:bb:ba:ca:30:da:98:32:68:cc:7b:ff:a1:1b:95:a1:7a:ec:
         5c:57:e3:a1:db:9f:dc:77:09:32:23:17:b6:ca:b6:25:1a:6f:
         7b:41:e9:a6:fe:0c:09:d6:8a:2e:30:b0:7c:83:99:43:d2:c4:
         c0:17:df:36:9d:df:4b:3e:97:8c:5e:49:9b:57:db:fb:36:6b:
         71:9c:2f:84:aa:2c:69:7a:db:aa:21:b2:30:71:43:d1:af:6e:
         92:17:5b:06:da:a7:29:04:9c:b0:6b:b5:1b:3d:9c:c2:68:ac:
         7b:d4:a1:d6:30:ab:56:f4:97:ac:2a:7a:19:fb:19:8a:04:5e:
         ba:9c:72:0a:90:02:5b:ca:76:7a:be:f6:c7:86:56:46:4f:b2:
         f9:61:51:a1:d6:d9:f5:98:75:e9:85:01:68:ef:31:ce:0f:3f:
         20:1a:66:7d:24:ea:d2:9a:dd:ab:ad:00:d5:6c:b0:fc:9e:15:
         8b:f6:fe:ca:2f:c5:5b:8b:97:1f:ad:45:1a:91:fc:be:b7:38:
         9e:0f:8e:e8:55:f7:8e:56:40:d4:51:b2:10:9f:55:1f:3e:18:
         aa:1c:ac:93:57:f4:52:7f:f3:22:30:81:7a:95:ed:37:4e:bb:
         cf:18:db:61:34:44:a5:ca
-----BEGIN CERTIFICATE-----
MIIGtDCCBJygAwIBAgIJAKMRvzTCeqBaMA0GCSqGSIb3DQEBCwUAMIGHMQswCQYD
VQQGEwJBVDERMA8GA1UECAwIU0FMWkJVUkcxETAPBgNVBAcMCFNBTFpCVVJHMSUw
IwYDVQQKDBxBQ0kgV29ybGR3aWRlIChHZXJtYW55KSBHbWJIMRMwEQYDVQQLDApP
cGVyYXRpb25zMRYwFAYDVQQDDA1wYXlvbi1yb290LWNhMB4XDTE4MTExMzA3NTAz
NFoXDTI1MTExMTA3NTAzNFowUzESMBAGA1UEAwwJbG9jYWxob3N0MRAwDgYDVQQI
DAdCYXZhcmlhMQswCQYDVQQGEwJERTEeMBwGA1UECgwVQUNJIFdvcmxkd2lkZSBH
ZXJtYW55MIICIjANBgkqhkiG9w0BAQEFAAOCAg8AMIICCgKCAgEAnAelKjqhhQkz
HDk9/9TMpXR+vkKqJB/MR5bDLVmDHnXx3CAJnfOfOD3Ps4WI7DbLltilGQHnHzAg
vIUTsR/ci8+xAAsvHvqHWaKIIEKmLrq8Q0EXDVQi2lPWUZkButfOMWR/aws+KtoO
FQr1jUKeVq+r54I5zTUK9QPd+J7BwUnvIQnqBD1TZrVly5fy1GevpaKSo6xAeINt
3J9cEtfY7iglkR1PS7VL02BbcxBVI5IE85gQeOX4RuBTrKXbxXBUONk2ZeclvvtU
mCCmB/aMyoxrw4EKQ8UTNpPD5JdadY+YyLGS+WNAmLXADVQZlT202LW2Z+MsW42U
21JGp8+V/UMe7X9Lnj8BOI9ock4V6V7XtxRgQfsP7czWjTUy0UQquBBVlkmNqoIz
7peKUB4owqiYUo5SOeRtl9izNlExUYRervWm7BdZacZ5SlnDO/1qraUaJDgjiIln
HccnKyLV2cNi69MG662lvJaG3CpzWQi3PqYXdgYP+Av8+WaJFxjsC/+Ia81mdxXd
o8/U8ptYzqhKRFc1a/F8UnP0/HouNVkLZIM8V27nY0+HsM15srxZZwWw0WDGyOdw
pSVlbg6Og/0upkreq3HXuqkYF13wqViLkANBhninPvfYExiiZ3Yew8KI4A5x3Dn0
p+CO/McdcM0obRx6F5283KszWoq2QB8CAwEAAaOCAVQwggFQMAkGA1UdEwQCMAAw
EQYJYIZIAYb4QgEBBAQDAgZAMB0GA1UdDgQWBBTTYaR+WDCrWpg9xi+3hxGNSdD7
yTCBvAYDVR0jBIG0MIGxgBRBhFaqA+HrEt0d1pTxvfxZXR0IWqGBjaSBijCBhzEL
MAkGA1UEBhMCQVQxETAPBgNVBAgMCFNBTFpCVVJHMREwDwYDVQQHDAhTQUxaQlVS
RzElMCMGA1UECgwcQUNJIFdvcmxkd2lkZSAoR2VybWFueSkgR21iSDETMBEGA1UE
CwwKT3BlcmF0aW9uczEWMBQGA1UEAwwNcGF5b24tcm9vdC1jYYIJAMTVRmuK9WUH
MAsGA1UdDwQEAwIDqDATBgNVHSUEDDAKBggrBgEFBQcDATAwBgNVHREEKTAnhwR/
AAABhxAAAAAAAAAAAAAAAAAAAAABgglsb2NhbGhvc3SCAmRiMA0GCSqGSIb3DQEB
CwUAA4ICAQBVRh4gFZIVCr1qP89dW5bYo+qioyN6h9MbQfDIMB2zbRJ9yyXYnH/q
lsTUnSVa+/Pp5cVIai4VghwmtthM7/tlW1mbR25eha5dmOz3grA1p0oQwN7HEzGE
mQzsvlUaP7qzIo+GZ4ZVd/XyWILANw5PxaHksNRe6rsYgkgq5HGlhkB/mxO96dEB
inLqgdRfHV/tf+F/II78/tGPHgkgGegj7pATqFUu2OZZHwrgNL5buYxNzPdobGLh
P7Vtgr16zD/qDx+pm8SDBpa0pSLjk0SI8viSdSXlhNMy9E6HrHgYLynfndZWAgjJ
HB4+FY3aZFfnXFaT16yn/5dCMJ7UTUzps0sFSFbF8FVHWhklPf2Gu7rKMNqYMmjM
e/+hG5WheuxcV+Oh25/cdwkyIxe2yrYlGm97Qemm/gwJ1oouMLB8g5lD0sTAF982
nd9LPpeMXkmbV9v7NmtxnC+EqixpetuqIbIwcUPRr26SF1sG2qcpBJywa7UbPZzC
aKx71KHWMKtW9JesKnoZ+xmKBF66nHIKkAJbynZ6vvbHhlZGT7L5YVGh1tn1mHXp
hQFo7zHODz8gGmZ9JOrSmt2rrQDVbLD8nhWL9v7KL8Vbi5cfrUUakfy+tzieD47o
VfeOVkDUUbIQn1UfPhiqHKyTV/RSf/MiMIF6le03TrvPGNthNESlyg==
-----END CERTIFICATE-----
-----BEGIN CERTIFICATE-----
MIIF4zCCA8ugAwIBAgIJAMTVRmuK9WUHMA0GCSqGSIb3DQEBDQUAMIGHMQswCQYD
VQQGEwJBVDERMA8GA1UECAwIU0FMWkJVUkcxETAPBgNVBAcMCFNBTFpCVVJHMSUw
IwYDVQQKDBxBQ0kgV29ybGR3aWRlIChHZXJtYW55KSBHbWJIMRMwEQYDVQQLDApP
cGVyYXRpb25zMRYwFAYDVQQDDA1wYXlvbi1yb290LWNhMB4XDTE3MDUxODE0MDA0
MVoXDTI1MTAwMzE0MDA0MVowgYcxCzAJBgNVBAYTAkFUMREwDwYDVQQIDAhTQUxa
QlVSRzERMA8GA1UEBwwIU0FMWkJVUkcxJTAjBgNVBAoMHEFDSSBXb3JsZHdpZGUg
KEdlcm1hbnkpIEdtYkgxEzARBgNVBAsMCk9wZXJhdGlvbnMxFjAUBgNVBAMMDXBh
eW9uLXJvb3QtY2EwggIiMA0GCSqGSIb3DQEBAQUAA4ICDwAwggIKAoICAQD0icr0
rL0RvpgRh524qI8pKtJy7c1WyrrAANOSCYyzk362dCBD73bM50vjSAUiNr8dWO9j
n9fCVm22nSc0q0ijsi2GifVny86/6c+iNywYPCcpUrL2SM4fKxpfTfS6GMLmpvQo
xS7Z027pl5BIR9dSRjwW0IOcEmeAW+kNh2O1hRHDV4rtj1Bbg+bBkjHb5m59LHeP
6LUiLIxuRr66aTQ6hVzljXhMx4+wu102RK3hcJNkTwclTmYxJAn/A8piNIhYYY9L
oL3VrEzt9iyHL8+MlpeJVxA1X9QJU+oMl4IN3I5DE3MAZY8YlGmVzRex+VZW4A9W
kr5+Vtz5W5oNgk+sNksBti3+v/KlaFcCoudnqPRXB86E+rOugQJOm5CnmHYolusE
B3Zdn89yam1HAcyDFR84qgQF/p/XrLErD+XD6/lQmBCcGLZrjz2YIWDzzNK37szu
re9uFgwtiBKLcwgHrwHFtQ5dJgHgJQAB8QStnEFUeoPvlt7DjnVEwelwdsL4rZzB
vCa/bf4B5vQ/LG3UVRzadL2+khY1CmUiPohqihAaxhkd3eqzrL35eU0gsLy9Stsy
h9uQ+Ul3wxdsx048i4sCidUlCgS1ozuytR5IDolWBcbXYeRlrMnJ99CXrZFwTxfp
1iNN5Ae/jQ6t6qBdFXrFom0csWquA7w0Hde/VwIDAQABo1AwTjAdBgNVHQ4EFgQU
QYRWqgPh6xLdHdaU8b38WV0dCFowHwYDVR0jBBgwFoAUQYRWqgPh6xLdHdaU8b38
WV0dCFowDAYDVR0TBAUwAwEB/zANBgkqhkiG9w0BAQ0FAAOCAgEAGYZcaIU76bUB
1wA5vzx1KeXSZlxSXt9Fvg0OxUIatqEXaL7b27pL9Gdx/f0srV+FxvCOOGvVzB/e
qDoNdJ+GdSd0Qo4PpbBaeTNf7zwL8XigiSsxczE+loWcsy3Pr6oSsiwLf9IpJLE4
vHA3VA7/vGuuvOap1JCPg5zsBMk0eggKdejXSLkXFDujE2KPQIEWyetnbiQhJzie
ndMejDnqK0tTT1UQ4hnnyR8vJF8IiUH5CGp43nLE5jj0l67cjlsIHKWHkMaPws5a
jx0M3MoU3gR09pDz+cRdRIffdcpORsXpZJIvVy1JzPadWlqaCxreFRe4I37Ko/eS
w/fzvcVxAMwSw3jk8unMZtfWhDyUadRkOPDf+WrB8gMLyPhJLALtptaGNsbZ7nKH
qLNw2jZjm558yqEAE9bn/G6940wJQ42Np+rvk84HHkgMI2kYW/lZR5xT0Sqat0MW
gC7tAW4ruPrNaZ/rClWQxc0XlmoRBFzW1xHTXWKQ37QCLJg9fxEqL0sgFM0A08H7
duYZKYfjToI91jo+sKvMPwGY+qF3gXCAxu+M6lSTo26L/u1EdyLEazqKRJ2/xMzW
PS0l+8PqLdIGen1XnKXf5qCEbruK0HxZHdDbeo/IVL9N1jtZPDoaTahiqmtj//Vh
FU/DEMbJtHD+fS5rh0O92fECVzKt7aY=
-----END CERTIFICATE-----
